target datalayout = "e-m:e-p270:32:32-p271:32:32-p272:64:64-i64:64-i128:128-f80:128-n8:16:32:64-S128"
target triple = "x86_64-pc-linux-gnu"

%struct.QuadTree_struct = type { i32, double, i32, ptr, double, ptr, ptr, ptr, i32, ptr }
%struct.node_data_struct = type { double, ptr, i32, ptr, ptr }

; Function Attrs: nounwind uwtable
define internal void @node_data_delete(ptr noundef %0) #0 {
  %2 = alloca ptr, align 8
  store ptr %0, ptr %2, align 8, !tbaa !28
  %3 = load ptr, ptr %2, align 8, !tbaa !28
  %4 = getelementptr inbounds nuw %struct.node_data_struct, ptr %3, i32 0, i32 1
  %5 = load ptr, ptr %4, align 8, !tbaa !31
  call void @free(ptr noundef %5) #11
  %6 = load ptr, ptr %2, align 8, !tbaa !28
  call void @free(ptr noundef %6) #11
  ret void
}

; Function Attrs: nounwind uwtable
define void @QuadTree_delete(ptr noundef %0) #0 {
  %2 = alloca ptr, align 8
  %3 = alloca i32, align 4
  %4 = alloca i32, align 4
  %5 = alloca i32, align 4
  %6 = alloca ptr, align 8
  store ptr %0, ptr %2, align 8, !tbaa !3
  call void @llvm.lifetime.start.p0(i64 4, ptr %3) #11
  call void @llvm.lifetime.start.p0(i64 4, ptr %4) #11
  %7 = load ptr, ptr %2, align 8, !tbaa !3
  %8 = icmp ne ptr %7, null
  br i1 %8, label %10, label %9

9:                                                ; preds = %1
  store i32 1, ptr %5, align 4
  br label %68

10:                                               ; preds = %1
  %11 = load ptr, ptr %2, align 8, !tbaa !3
  %12 = getelementptr inbounds nuw %struct.QuadTree_struct, ptr %11, i32 0, i32 2
  %13 = load i32, ptr %12, align 8, !tbaa !18
  store i32 %13, ptr %4, align 4, !tbaa !12
  %14 = load ptr, ptr %2, align 8, !tbaa !3
  %15 = getelementptr inbounds nuw %struct.QuadTree_struct, ptr %14, i32 0, i32 3
  %16 = load ptr, ptr %15, align 8, !tbaa !38
  call void @free(ptr noundef %16) #11
  %17 = load ptr, ptr %2, align 8, !tbaa !3
  %18 = getelementptr inbounds nuw %struct.QuadTree_struct, ptr %17, i32 0, i32 5
  %19 = load ptr, ptr %18, align 8, !tbaa !40
  call void @free(ptr noundef %19) #11
  %20 = load ptr, ptr %2, align 8, !tbaa !3
  %21 = getelementptr inbounds nuw %struct.QuadTree_struct, ptr %20, i32 0, i32 9
  %22 = load ptr, ptr %21, align 8, !tbaa !70
  call void @free(ptr noundef %22) #11
  %23 = load ptr, ptr %2, align 8, !tbaa !3
  %24 = getelementptr inbounds nuw %struct.QuadTree_struct, ptr %23, i32 0, i32 6
  %25 = load ptr, ptr %24, align 8, !tbaa !37
  %26 = icmp ne ptr %25, null
  br i1 %26, label %27, label %48

27:                                               ; preds = %10
  store i32 0, ptr %3, align 4, !tbaa !12
  br label %28

28:                                               ; preds = %41, %27
  %29 = load i32, ptr %3, align 4, !tbaa !12
  %30 = load i32, ptr %4, align 4, !tbaa !12
  %31 = shl i32 1, %30
  %32 = icmp slt i32 %29, %31
  br i1 %32, label %33, label %44

33:                                               ; preds = %28
  %34 = load ptr, ptr %2, align 8, !tbaa !3
  %35 = getelementptr inbounds nuw %struct.QuadTree_struct, ptr %34, i32 0, i32 6
  %36 = load ptr, ptr %35, align 8, !tbaa !37
  %37 = load i32, ptr %3, align 4, !tbaa !12
  %38 = sext i32 %37 to i64
  %39 = getelementptr inbounds ptr, ptr %36, i64 %38
  %40 = load ptr, ptr %39, align 8, !tbaa !3
  call void @QuadTree_delete(ptr noundef %40)
  br label %41

41:                                               ; preds = %33
  %42 = load i32, ptr %3, align 4, !tbaa !12
  %43 = add nsw i32 %42, 1
  store i32 %43, ptr %3, align 4, !tbaa !12
  br label %28, !llvm.loop !71

44:                                               ; preds = %28
  %45 = load ptr, ptr %2, align 8, !tbaa !3
  %46 = getelementptr inbounds nuw %struct.QuadTree_struct, ptr %45, i32 0, i32 6
  %47 = load ptr, ptr %46, align 8, !tbaa !37
  call void @free(ptr noundef %47) #11
  br label %48

48:                                               ; preds = %44, %10
  br label %49

49:                                               ; preds = %54, %48
  %50 = load ptr, ptr %2, align 8, !tbaa !3
  %51 = getelementptr inbounds nuw %struct.QuadTree_struct, ptr %50, i32 0, i32 7
  %52 = load ptr, ptr %51, align 8, !tbaa !27
  %53 = icmp ne ptr %52, null
  br i1 %53, label %54, label %66

54:                                               ; preds = %49
  call void @llvm.lifetime.start.p0(i64 8, ptr %6) #11
  %55 = load ptr, ptr %2, align 8, !tbaa !3
  %56 = getelementptr inbounds nuw %struct.QuadTree_struct, ptr %55, i32 0, i32 7
  %57 = load ptr, ptr %56, align 8, !tbaa !27
  %58 = getelementptr inbounds nuw %struct.node_data_struct, ptr %57, i32 0, i32 4
  %59 = load ptr, ptr %58, align 8, !tbaa !35
  store ptr %59, ptr %6, align 8, !tbaa !28
  %60 = load ptr, ptr %2, align 8, !tbaa !3
  %61 = getelementptr inbounds nuw %struct.QuadTree_struct, ptr %60, i32 0, i32 7
  %62 = load ptr, ptr %61, align 8, !tbaa !27
  call void @node_data_delete(ptr noundef %62)
  %63 = load ptr, ptr %6, align 8, !tbaa !28
  %64 = load ptr, ptr %2, align 8, !tbaa !3
  %65 = getelementptr inbounds nuw %struct.QuadTree_struct, ptr %64, i32 0, i32 7
  store ptr %63, ptr %65, align 8, !tbaa !27
  call void @llvm.lifetime.end.p0(i64 8, ptr %6) #11
  br label %49, !llvm.loop !72

66:                                               ; preds = %49
  %67 = load ptr, ptr %2, align 8, !tbaa !3
  call void @free(ptr noundef %67) #11
  store i32 0, ptr %5, align 4
  br label %68

68:                                               ; preds = %66, %9
  call void @llvm.lifetime.end.p0(i64 4, ptr %4) #11
  call void @llvm.lifetime.end.p0(i64 4, ptr %3) #11
  %69 = load i32, ptr %5, align 4
  switch i32 %69, label %71 [
    i32 0, label %70
    i32 1, label %70
  ]

70:                                               ; preds = %68, %68
  ret void

71:                                               ; preds = %68
  unreachable
}