; Function Attrs: nounwind uwtable
define void @QuadTree_delete(ptr noundef captures(address_is_null) %0) local_unnamed_addr #0 {
  %.not = icmp eq ptr %0, null
  br i1 %.not, label %26, label %2

2:                                                ; preds = %1
  %3 = getelementptr inbounds nuw i8, ptr %0, i64 16
  %4 = load i32, ptr %3, align 8, !tbaa !3
  %5 = getelementptr inbounds nuw i8, ptr %0, i64 24
  %6 = load ptr, ptr %5, align 8, !tbaa !27
  tail call void @free(ptr noundef %6) #18
  %7 = getelementptr inbounds nuw i8, ptr %0, i64 40
  %8 = load ptr, ptr %7, align 8, !tbaa !29
  tail call void @free(ptr noundef %8) #18
  %9 = getelementptr inbounds nuw i8, ptr %0, i64 72
  %10 = load ptr, ptr %9, align 8, !tbaa !59
  tail call void @free(ptr noundef %10) #18
  %11 = getelementptr inbounds nuw i8, ptr %0, i64 48
  %12 = load ptr, ptr %11, align 8, !tbaa !26
  %.not19 = icmp eq ptr %12, null
  br i1 %.not19, label %18, label %.preheader

.preheader:                                       ; preds = %2
  %.not26 = icmp eq i32 %4, 31
  br i1 %.not26, label %._crit_edge, label %.lr.ph.preheader

.lr.ph.preheader:                                 ; preds = %.preheader
  %13 = shl nuw nsw i32 1, %4
  %wide.trip.count = zext nneg i32 %13 to i64
  br label %.lr.ph

.lr.ph:                                           ; preds = %.lr.ph.preheader, %.lr.ph
  %indvars.iv = phi i64 [ 0, %.lr.ph.preheader ], [ %indvars.iv.next, %.lr.ph ]
  %14 = load ptr, ptr %11, align 8, !tbaa !26
  %15 = getelementptr inbounds nuw ptr, ptr %14, i64 %indvars.iv
  %16 = load ptr, ptr %15, align 8, !tbaa !32
  tail call void @QuadTree_delete(ptr noundef %16)
  %indvars.iv.next = add nuw nsw i64 %indvars.iv, 1
  %exitcond.not = icmp eq i64 %indvars.iv.next, %wide.trip.count
  br i1 %exitcond.not, label %._crit_edge.loopexit, label %.lr.ph, !llvm.loop !60

._crit_edge.loopexit:                             ; preds = %.lr.ph
  %.pre = load ptr, ptr %11, align 8, !tbaa !26
  br label %._crit_edge

._crit_edge:                                      ; preds = %._crit_edge.loopexit, %.preheader
  %17 = phi ptr [ %.pre, %._crit_edge.loopexit ], [ %12, %.preheader ]
  tail call void @free(ptr noundef %17) #18
  br label %18

18:                                               ; preds = %._crit_edge, %2
  %19 = getelementptr inbounds nuw i8, ptr %0, i64 56
  %20 = load ptr, ptr %19, align 8, !tbaa !37
  %.not2022 = icmp eq ptr %20, null
  br i1 %.not2022, label %._crit_edge25, label %.lr.ph24

.lr.ph24:                                         ; preds = %18, %.lr.ph24
  %21 = phi ptr [ %23, %.lr.ph24 ], [ %20, %18 ]
  %22 = getelementptr inbounds nuw i8, ptr %21, i64 32
  %23 = load ptr, ptr %22, align 8, !tbaa !42
  %24 = getelementptr inbounds nuw i8, ptr %21, i64 8
  %25 = load ptr, ptr %24, align 8, !tbaa !21
  tail call void @free(ptr noundef %25) #18
  tail call void @free(ptr noundef nonnull %21) #18
  store ptr %23, ptr %19, align 8, !tbaa !37
  %.not20 = icmp eq ptr %23, null
  br i1 %.not20, label %._crit_edge25, label %.lr.ph24, !llvm.loop !61

._crit_edge25:                                    ; preds = %.lr.ph24, %18
  tail call void @free(ptr noundef nonnull %0) #18
  br label %26

26:                                               ; preds = %1, %._crit_edge25
  ret void
}